; Function Attrs: mustprogress uwtable
define void @_ZN2cv6bgsegm28BackgroundSubtractorLSBPDesc7computeERKNS_12_OutputArrayERKNS_3MatEPKNS_6Point_IiEE(ptr noundef nonnull align 8 dereferenceable(24) %0, ptr noundef nonnull align 8 dereferenceable(96) %1, ptr noundef %2) local_unnamed_addr #3 align 2 personality ptr @__gxx_personality_v0 {
  %4 = alloca %"class.cv::Mat", align 8
  %5 = alloca %"class.cv::_OutputArray", align 8
  call void @llvm.lifetime.start.p0(i64 96, ptr nonnull %4) #29
  call void @_ZN2cv3MatC1Ev(ptr noundef nonnull align 8 dereferenceable(96) %4) #29
  call void @llvm.lifetime.start.p0(i64 24, ptr nonnull %5) #29
  %6 = getelementptr inbounds nuw i8, ptr %5, i64 8
  %7 = getelementptr inbounds nuw i8, ptr %5, i64 16
  store i64 0, ptr %7, align 8
  store i32 33619968, ptr %5, align 8, !tbaa !19
  store ptr %4, ptr %6, align 8, !tbaa !11
  invoke void @_ZN2cv6bgsegm28BackgroundSubtractorLSBPDesc18calcLocalSVDValuesERKNS_12_OutputArrayERKNS_3MatE(ptr noundef nonnull align 8 dereferenceable(24) %5, ptr noundef nonnull align 8 dereferenceable(96) %1)
          to label %8 unwind label %10

8:                                                ; preds = %3
  call void @llvm.lifetime.end.p0(i64 24, ptr nonnull %5) #29
  invoke void @_ZN2cv6bgsegm28BackgroundSubtractorLSBPDesc25computeFromLocalSVDValuesERKNS_12_OutputArrayERKNS_3MatEPKNS_6Point_IiEE(ptr noundef nonnull align 8 dereferenceable(24) %0, ptr noundef nonnull align 8 dereferenceable(96) %4, ptr noundef %2)
          to label %9 unwind label %12

9:                                                ; preds = %8
  call void @_ZN2cv3MatD1Ev(ptr noundef nonnull align 8 dereferenceable(96) %4) #29
  call void @llvm.lifetime.end.p0(i64 96, ptr nonnull %4) #29
  ret void

10:                                               ; preds = %3
  %11 = landingpad { ptr, i32 }
          cleanup
  call void @llvm.lifetime.end.p0(i64 24, ptr nonnull %5) #29
  br label %14

12:                                               ; preds = %8
  %13 = landingpad { ptr, i32 }
          cleanup
  br label %14

14:                                               ; preds = %12, %10
  %.pn7 = phi { ptr, i32 } [ %13, %12 ], [ %11, %10 ]
  call void @_ZN2cv3MatD1Ev(ptr noundef nonnull align 8 dereferenceable(96) %4) #29
  call void @llvm.lifetime.end.p0(i64 96, ptr nonnull %4) #29
  resume { ptr, i32 } %.pn7
}